target datalayout = "e-m:e-p270:32:32-p271:32:32-p272:64:64-i64:64-i128:128-f80:128-n8:16:32:64-S128"
target triple = "x86_64-pc-linux-gnu"

%struct.ossl_record_layer_st = type { ptr, ptr, i32, i32, i32, i32, i32, ptr, i16, ptr, ptr, ptr, i64, i32, [33 x %struct.tls_buffer_st], i64, i64, %struct.tls_buffer_st, [32 x %struct.tls_rl_record_st], i64, i64, i64, i32, ptr, i64, [8 x i8], i32, i32, i64, i32, ptr, ptr, i64, ptr, ptr, i32, i32, i32, i64, i64, i64, [64 x i8], i32, i32, i32, ptr, ptr, i32, i32, i64, ptr, ptr, %struct.dtls_bitmap_st, %struct.dtls_bitmap_st, i32, ptr, ptr, ptr, ptr, ptr, i64, ptr }
%struct.tls_buffer_st = type { ptr, i64, i64, i64, i64, i32, i32 }
%struct.tls_rl_record_st = type { i32, i32, i64, i64, i64, ptr, ptr, ptr, i16, [8 x i8] }
%struct.dtls_bitmap_st = type { i64, [8 x i8] }

; Function Attrs: nounwind uwtable
define internal i32 @tls_any_set_protocol_version(ptr noundef %0, i32 noundef %1) #0 {
  %3 = alloca i32, align 4
  %4 = alloca ptr, align 8
  %5 = alloca i32, align 4
  store ptr %0, ptr %4, align 8, !tbaa !3
  store i32 %1, ptr %5, align 4, !tbaa !8
  %6 = load ptr, ptr %4, align 8, !tbaa !3
  %7 = getelementptr inbounds nuw %struct.ossl_record_layer_st, ptr %6, i32 0, i32 3
  %8 = load i32, ptr %7, align 4, !tbaa !24
  %9 = icmp ne i32 %8, 65536
  br i1 %9, label %10, label %17

10:                                               ; preds = %2
  %11 = load ptr, ptr %4, align 8, !tbaa !3
  %12 = getelementptr inbounds nuw %struct.ossl_record_layer_st, ptr %11, i32 0, i32 3
  %13 = load i32, ptr %12, align 4, !tbaa !24
  %14 = load i32, ptr %5, align 4, !tbaa !8
  %15 = icmp ne i32 %13, %14
  br i1 %15, label %16, label %17

16:                                               ; preds = %10
  store i32 0, ptr %3, align 4
  br label %21

17:                                               ; preds = %10, %2
  %18 = load i32, ptr %5, align 4, !tbaa !8
  %19 = load ptr, ptr %4, align 8, !tbaa !3
  %20 = getelementptr inbounds nuw %struct.ossl_record_layer_st, ptr %19, i32 0, i32 3
  store i32 %18, ptr %20, align 4, !tbaa !24
  store i32 1, ptr %3, align 4
  br label %21

21:                                               ; preds = %17, %16
  %22 = load i32, ptr %3, align 4
  ret i32 %22
}