; Function Attrs: mustprogress nofree norecurse nosync nounwind willreturn memory(argmem: readwrite) uwtable
define internal range(i32 0, 2) i32 @tls_any_set_protocol_version(ptr noundef captures(none) %0, i32 noundef %1) #2 {
  %3 = getelementptr inbounds nuw i8, ptr %0, i64 20
  %4 = load i32, ptr %3, align 4, !tbaa !3
  %.not = icmp eq i32 %4, 65536
  %.not6 = icmp eq i32 %4, %1
  %or.cond = or i1 %.not, %.not6
  br i1 %or.cond, label %5, label %6

5:                                                ; preds = %2
  store i32 %1, ptr %3, align 4, !tbaa !3
  br label %6

6:                                                ; preds = %2, %5
  %.0 = phi i32 [ 1, %5 ], [ 0, %2 ]
  ret i32 %.0
}